; Function Attrs: mustprogress uwtable
define hidden void @_ZN3euf17smt_proof_checker13ensure_solverEv(ptr noundef nonnull align 8 dereferenceable(5076) %0) local_unnamed_addr #3 align 2 {
  %2 = alloca %class.symbol, align 8
  %3 = getelementptr inbounds nuw i8, ptr %0, i64 56
  %4 = load ptr, ptr %3, align 8, !tbaa !284
  %.not = icmp eq ptr %4, null
  br i1 %.not, label %5, label %15

5:                                                ; preds = %1
  %6 = load ptr, ptr %0, align 8, !tbaa !285
  %7 = getelementptr inbounds nuw i8, ptr %0, i64 8
  call void @llvm.lifetime.start.p0(i64 8, ptr nonnull %2) #21
  store ptr null, ptr %2, align 8, !tbaa !84
  %8 = call noundef ptr @_Z13mk_smt_solverR11ast_managerRK10params_refRK6symbol(ptr noundef nonnull align 8 dereferenceable(976) %6, ptr noundef nonnull align 8 dereferenceable(8) %7, ptr noundef nonnull align 8 dereferenceable(8) %2)
  %9 = load ptr, ptr %3, align 8, !tbaa !284
  %.not.i = icmp eq ptr %9, %8
  br i1 %.not.i, label %_ZN10scoped_ptrI6solverEaSEPS0_.exit, label %10

10:                                               ; preds = %5
  %11 = icmp eq ptr %9, null
  br i1 %11, label %_Z7deallocI6solverEvPT_.exit.i, label %12

12:                                               ; preds = %10
  %13 = load ptr, ptr %9, align 8, !tbaa !24
  %14 = load ptr, ptr %13, align 8
  call void %14(ptr noundef nonnull align 8 dereferenceable(96) %9) #21
  call void @_ZN6memory10deallocateEPv(ptr noundef nonnull %9)
  br label %_Z7deallocI6solverEvPT_.exit.i

_Z7deallocI6solverEvPT_.exit.i:                   ; preds = %12, %10
  store ptr %8, ptr %3, align 8, !tbaa !284
  br label %_ZN10scoped_ptrI6solverEaSEPS0_.exit

_ZN10scoped_ptrI6solverEaSEPS0_.exit:             ; preds = %5, %_Z7deallocI6solverEvPT_.exit.i
  call void @llvm.lifetime.end.p0(i64 8, ptr nonnull %2) #21
  br label %15

15:                                               ; preds = %_ZN10scoped_ptrI6solverEaSEPS0_.exit, %1
  ret void
}